target datalayout = "e-m:e-p270:32:32-p271:32:32-p272:64:64-i64:64-i128:128-f80:128-n8:16:32:64-S128"
target triple = "x86_64-pc-linux-gnu"

%struct.H5FS_section_info_t = type { i64, i64, i32, i32 }

@.str.3 = private unnamed_addr constant [105 x i8] c"generated/home/dtcxzyw/WorkSpace/Projects/compilers/llvm-opt-benchmark/bench/hdf5/hdf5/src/H5FSsection.c\00", align 1
@H5E_FSPACE_g = external global i64, align 8
@H5E_CANTGET_g = external global i64, align 8
@.str.7 = private unnamed_addr constant [23 x i8] c"can't get section info\00", align 1
@H5E_CANTRELEASE_g = external global i64, align 8
@.str.9 = private unnamed_addr constant [27 x i8] c"can't release section info\00", align 1
@H5E_CANTINSERT_g = external global i64, align 8
@H5E_CANTMERGE_g = external global i64, align 8
@.str.11 = private unnamed_addr constant [21 x i8] c"can't merge sections\00", align 1
@.str.12 = private unnamed_addr constant [47 x i8] c"can't insert free space section into skip list\00", align 1
@__func__.H5FS_sect_try_merge = private unnamed_addr constant [20 x i8] c"H5FS_sect_try_merge\00", align 1

; Function Attrs: nounwind uwtable
define i32 @H5FS_sect_try_merge(ptr noundef %0, ptr noundef %1, ptr noundef %2, i32 noundef %3, ptr noundef %4) #0 {
  %6 = alloca ptr, align 8
  %7 = alloca ptr, align 8
  %8 = alloca ptr, align 8
  %9 = alloca i32, align 4
  %10 = alloca ptr, align 8
  %11 = alloca i8, align 1
  %12 = alloca i8, align 1
  %13 = alloca i64, align 8
  %14 = alloca i32, align 4
  %15 = alloca i8, align 1
  store ptr %0, ptr %6, align 8
  store ptr %1, ptr %7, align 8
  store ptr %2, ptr %8, align 8
  store i32 %3, ptr %9, align 4
  store ptr %4, ptr %10, align 8
  store i8 0, ptr %11, align 1
  store i8 0, ptr %12, align 1
  store i32 0, ptr %14, align 4
  store i8 0, ptr %15, align 1
  %16 = load ptr, ptr %6, align 8
  %17 = load ptr, ptr %7, align 8
  %18 = call i32 @H5FS__sinfo_lock(ptr noundef %16, ptr noundef %17, i32 noundef 0)
  %19 = icmp slt i32 %18, 0
  br i1 %19, label %20, label %35

20:                                               ; preds = %5
  br label %21

21:                                               ; preds = %20
  br label %22

22:                                               ; preds = %21
  br label %23

23:                                               ; preds = %22
  %24 = load i64, ptr @H5E_FSPACE_g, align 8
  %25 = load i64, ptr @H5E_CANTGET_g, align 8
  %26 = call i32 (ptr, ptr, i32, i64, i64, ptr, ...) @H5E_printf_stack(ptr noundef @.str.3, ptr noundef @__func__.H5FS_sect_try_merge, i32 noundef 1531, i64 noundef %24, i64 noundef %25, ptr noundef @.str.7)
  br label %27

27:                                               ; preds = %23
  store i8 1, ptr %15, align 1
  %28 = load i8, ptr %15, align 1
  %29 = trunc i8 %28 to i1
  %30 = zext i1 %29 to i8
  store i8 %30, ptr %15, align 1
  br label %31

31:                                               ; preds = %27
  br label %32

32:                                               ; preds = %31
  store i32 -1, ptr %14, align 4
  br label %96

33:                                               ; No predecessors!
  br label %34

34:                                               ; preds = %33
  br label %35

35:                                               ; preds = %34, %5
  store i8 1, ptr %11, align 1
  %36 = load ptr, ptr %8, align 8
  %37 = getelementptr inbounds %struct.H5FS_section_info_t, ptr %36, i32 0, i32 1
  %38 = load i64, ptr %37, align 8
  store i64 %38, ptr %13, align 8
  %39 = load ptr, ptr %7, align 8
  %40 = load ptr, ptr %10, align 8
  %41 = call i32 @H5FS__sect_merge(ptr noundef %39, ptr noundef %8, ptr noundef %40)
  %42 = icmp slt i32 %41, 0
  br i1 %42, label %43, label %58

43:                                               ; preds = %35
  br label %44

44:                                               ; preds = %43
  br label %45

45:                                               ; preds = %44
  br label %46

46:                                               ; preds = %45
  %47 = load i64, ptr @H5E_FSPACE_g, align 8
  %48 = load i64, ptr @H5E_CANTMERGE_g, align 8
  %49 = call i32 (ptr, ptr, i32, i64, i64, ptr, ...) @H5E_printf_stack(ptr noundef @.str.3, ptr noundef @__func__.H5FS_sect_try_merge, i32 noundef 1537, i64 noundef %47, i64 noundef %48, ptr noundef @.str.11)
  br label %50

50:                                               ; preds = %46
  store i8 1, ptr %15, align 1
  %51 = load i8, ptr %15, align 1
  %52 = trunc i8 %51 to i1
  %53 = zext i1 %52 to i8
  store i8 %53, ptr %15, align 1
  br label %54

54:                                               ; preds = %50
  br label %55

55:                                               ; preds = %54
  store i32 -1, ptr %14, align 4
  br label %96

56:                                               ; No predecessors!
  br label %57

57:                                               ; preds = %56
  br label %58

58:                                               ; preds = %57, %35
  %59 = load ptr, ptr %8, align 8
  %60 = icmp ne ptr %59, null
  br i1 %60, label %64, label %61

61:                                               ; preds = %58
  store i8 1, ptr %12, align 1
  br label %62

62:                                               ; preds = %61
  store i32 1, ptr %14, align 4
  br label %96

63:                                               ; No predecessors!
  br label %95

64:                                               ; preds = %58
  %65 = load ptr, ptr %8, align 8
  %66 = getelementptr inbounds %struct.H5FS_section_info_t, ptr %65, i32 0, i32 1
  %67 = load i64, ptr %66, align 8
  %68 = load i64, ptr %13, align 8
  %69 = icmp ne i64 %67, %68
  br i1 %69, label %70, label %94

70:                                               ; preds = %64
  %71 = load ptr, ptr %7, align 8
  %72 = load ptr, ptr %8, align 8
  %73 = load i32, ptr %9, align 4
  %74 = call i32 @H5FS__sect_link(ptr noundef %71, ptr noundef %72, i32 noundef %73)
  %75 = icmp slt i32 %74, 0
  br i1 %75, label %76, label %91

76:                                               ; preds = %70
  br label %77

77:                                               ; preds = %76
  br label %78

78:                                               ; preds = %77
  br label %79

79:                                               ; preds = %78
  %80 = load i64, ptr @H5E_FSPACE_g, align 8
  %81 = load i64, ptr @H5E_CANTINSERT_g, align 8
  %82 = call i32 (ptr, ptr, i32, i64, i64, ptr, ...) @H5E_printf_stack(ptr noundef @.str.3, ptr noundef @__func__.H5FS_sect_try_merge, i32 noundef 1549, i64 noundef %80, i64 noundef %81, ptr noundef @.str.12)
  br label %83

83:                                               ; preds = %79
  store i8 1, ptr %15, align 1
  %84 = load i8, ptr %15, align 1
  %85 = trunc i8 %84 to i1
  %86 = zext i1 %85 to i8
  store i8 %86, ptr %15, align 1
  br label %87

87:                                               ; preds = %83
  br label %88

88:                                               ; preds = %87
  store i32 -1, ptr %14, align 4
  br label %96

89:                                               ; No predecessors!
  br label %90

90:                                               ; preds = %89
  br label %91

91:                                               ; preds = %90, %70
  store i8 1, ptr %12, align 1
  br label %92

92:                                               ; preds = %91
  store i32 1, ptr %14, align 4
  br label %96

93:                                               ; No predecessors!
  br label %94

94:                                               ; preds = %93, %64
  br label %95

95:                                               ; preds = %94, %63
  br label %96

96:                                               ; preds = %95, %92, %88, %62, %55, %32
  %97 = load i8, ptr %11, align 1
  %98 = trunc i8 %97 to i1
  br i1 %98, label %99, label %119

99:                                               ; preds = %96
  %100 = load ptr, ptr %6, align 8
  %101 = load ptr, ptr %7, align 8
  %102 = load i8, ptr %12, align 1
  %103 = trunc i8 %102 to i1
  %104 = call i32 @H5FS__sinfo_unlock(ptr noundef %100, ptr noundef %101, i1 noundef zeroext %103)
  %105 = icmp slt i32 %104, 0
  br i1 %105, label %106, label %119

106:                                              ; preds = %99
  br label %107

107:                                              ; preds = %106
  br label %108

108:                                              ; preds = %107
  br label %109

109:                                              ; preds = %108
  %110 = load i64, ptr @H5E_FSPACE_g, align 8
  %111 = load i64, ptr @H5E_CANTRELEASE_g, align 8
  %112 = call i32 (ptr, ptr, i32, i64, i64, ptr, ...) @H5E_printf_stack(ptr noundef @.str.3, ptr noundef @__func__.H5FS_sect_try_merge, i32 noundef 1558, i64 noundef %110, i64 noundef %111, ptr noundef @.str.9)
  br label %113

113:                                              ; preds = %109
  store i8 1, ptr %15, align 1
  %114 = load i8, ptr %15, align 1
  %115 = trunc i8 %114 to i1
  %116 = zext i1 %115 to i8
  store i8 %116, ptr %15, align 1
  br label %117

117:                                              ; preds = %113
  store i32 -1, ptr %14, align 4
  br label %118

118:                                              ; preds = %117
  br label %119

119:                                              ; preds = %118, %99, %96
  %120 = load i32, ptr %14, align 4
  ret i32 %120
}