; Function Attrs: nounwind uwtable
define range(i32 -1, 2) i32 @H5FS_sect_try_merge(ptr noundef %0, ptr noundef %1, ptr noundef %2, i32 noundef %3, ptr noundef %4) local_unnamed_addr #0 {
  %6 = alloca ptr, align 8
  store ptr %2, ptr %6, align 8
  %7 = tail call fastcc i32 @H5FS__sinfo_lock(ptr noundef %0, ptr noundef %1, i32 noundef 0)
  %8 = icmp sgt i32 %7, -1
  br i1 %8, label %9, label %30

9:                                                ; preds = %5
  %10 = getelementptr inbounds i8, ptr %2, i64 8
  %11 = load i64, ptr %10, align 8
  %12 = call fastcc i32 @H5FS__sect_merge(ptr noundef %1, ptr noundef nonnull %6, ptr noundef %4)
  %13 = icmp slt i32 %12, 0
  br i1 %13, label %14, label %18

14:                                               ; preds = %9
  %15 = load i64, ptr @H5E_FSPACE_g, align 8
  %16 = load i64, ptr @H5E_CANTMERGE_g, align 8
  %17 = call i32 (ptr, ptr, i32, i64, i64, ptr, ...) @H5E_printf_stack(ptr noundef nonnull @.str.3, ptr noundef nonnull @__func__.H5FS_sect_try_merge, i32 noundef 1537, i64 noundef %15, i64 noundef %16, ptr noundef nonnull @.str.11) #6
  br label %34

18:                                               ; preds = %9
  %19 = load ptr, ptr %6, align 8
  %.not = icmp eq ptr %19, null
  br i1 %.not, label %34, label %20

20:                                               ; preds = %18
  %21 = getelementptr inbounds i8, ptr %19, i64 8
  %22 = load i64, ptr %21, align 8
  %.not18 = icmp eq i64 %22, %11
  br i1 %.not18, label %34, label %23

23:                                               ; preds = %20
  %24 = call fastcc i32 @H5FS__sect_link(ptr noundef %1, ptr noundef nonnull %19, i32 noundef %3)
  %25 = icmp slt i32 %24, 0
  br i1 %25, label %26, label %34

26:                                               ; preds = %23
  %27 = load i64, ptr @H5E_FSPACE_g, align 8
  %28 = load i64, ptr @H5E_CANTINSERT_g, align 8
  %29 = call i32 (ptr, ptr, i32, i64, i64, ptr, ...) @H5E_printf_stack(ptr noundef nonnull @.str.3, ptr noundef nonnull @__func__.H5FS_sect_try_merge, i32 noundef 1549, i64 noundef %27, i64 noundef %28, ptr noundef nonnull @.str.12) #6
  br label %34

30:                                               ; preds = %5
  %31 = load i64, ptr @H5E_FSPACE_g, align 8
  %32 = load i64, ptr @H5E_CANTGET_g, align 8
  %33 = tail call i32 (ptr, ptr, i32, i64, i64, ptr, ...) @H5E_printf_stack(ptr noundef nonnull @.str.3, ptr noundef nonnull @__func__.H5FS_sect_try_merge, i32 noundef 1531, i64 noundef %31, i64 noundef %32, ptr noundef nonnull @.str.7) #6
  br label %41

34:                                               ; preds = %23, %18, %20, %26, %14
  %.016.ph = phi i1 [ true, %23 ], [ true, %18 ], [ false, %20 ], [ false, %26 ], [ false, %14 ]
  %.0.ph = phi i32 [ 1, %23 ], [ 1, %18 ], [ 0, %20 ], [ -1, %26 ], [ -1, %14 ]
  %35 = call fastcc i32 @H5FS__sinfo_unlock(ptr noundef %0, ptr noundef %1, i1 noundef zeroext %.016.ph)
  %36 = icmp slt i32 %35, 0
  br i1 %36, label %37, label %41

37:                                               ; preds = %34
  %38 = load i64, ptr @H5E_FSPACE_g, align 8
  %39 = load i64, ptr @H5E_CANTRELEASE_g, align 8
  %40 = call i32 (ptr, ptr, i32, i64, i64, ptr, ...) @H5E_printf_stack(ptr noundef nonnull @.str.3, ptr noundef nonnull @__func__.H5FS_sect_try_merge, i32 noundef 1558, i64 noundef %38, i64 noundef %39, ptr noundef nonnull @.str.9) #6
  br label %41

41:                                               ; preds = %30, %37, %34
  %.1 = phi i32 [ -1, %37 ], [ %.0.ph, %34 ], [ -1, %30 ]
  ret i32 %.1
}